target datalayout = "e-m:e-p270:32:32-p271:32:32-p272:64:64-i64:64-i128:128-f80:128-n8:16:32:64-S128"
target triple = "x86_64-pc-linux-gnu"

; Function Attrs: nounwind uwtable
define ptr @Abc_NtkDarTempor(ptr noundef %0, i32 noundef %1, i32 noundef %2, i32 noundef %3, i32 noundef %4, i32 noundef %5, i32 noundef %6, i32 noundef %7) #0 {
  %9 = alloca ptr, align 8
  %10 = alloca ptr, align 8
  %11 = alloca i32, align 4
  %12 = alloca i32, align 4
  %13 = alloca i32, align 4
  %14 = alloca i32, align 4
  %15 = alloca i32, align 4
  %16 = alloca i32, align 4
  %17 = alloca i32, align 4
  %18 = alloca ptr, align 8
  %19 = alloca ptr, align 8
  %20 = alloca ptr, align 8
  store ptr %0, ptr %10, align 8
  store i32 %1, ptr %11, align 4
  store i32 %2, ptr %12, align 4
  store i32 %3, ptr %13, align 4
  store i32 %4, ptr %14, align 4
  store i32 %5, ptr %15, align 4
  store i32 %6, ptr %16, align 4
  store i32 %7, ptr %17, align 4
  %21 = load ptr, ptr %10, align 8
  %22 = call ptr @Abc_NtkToDar(ptr noundef %21, i32 noundef 0, i32 noundef 1)
  store ptr %22, ptr %19, align 8
  %23 = load ptr, ptr %19, align 8
  %24 = icmp eq ptr %23, null
  br i1 %24, label %25, label %26

25:                                               ; preds = %8
  store ptr null, ptr %9, align 8
  br label %48

26:                                               ; preds = %8
  %27 = load ptr, ptr %19, align 8
  %28 = load i32, ptr %11, align 4
  %29 = load i32, ptr %12, align 4
  %30 = load i32, ptr %13, align 4
  %31 = load i32, ptr %14, align 4
  %32 = load i32, ptr %15, align 4
  %33 = load i32, ptr %16, align 4
  %34 = load i32, ptr %17, align 4
  %35 = call ptr @Saig_ManTempor(ptr noundef %27, i32 noundef %28, i32 noundef %29, i32 noundef %30, i32 noundef %31, i32 noundef %32, i32 noundef %33, i32 noundef %34)
  store ptr %35, ptr %20, align 8
  %36 = load ptr, ptr %19, align 8
  call void @Aig_ManStop(ptr noundef %36)
  %37 = load ptr, ptr %20, align 8
  %38 = icmp eq ptr %37, null
  br i1 %38, label %39, label %42

39:                                               ; preds = %26
  %40 = load ptr, ptr %10, align 8
  %41 = call ptr @Abc_NtkDup(ptr noundef %40)
  store ptr %41, ptr %9, align 8
  br label %48

42:                                               ; preds = %26
  %43 = load ptr, ptr %10, align 8
  %44 = load ptr, ptr %20, align 8
  %45 = call ptr @Abc_NtkFromDarSeqSweep(ptr noundef %43, ptr noundef %44)
  store ptr %45, ptr %18, align 8
  %46 = load ptr, ptr %20, align 8
  call void @Aig_ManStop(ptr noundef %46)
  %47 = load ptr, ptr %18, align 8
  store ptr %47, ptr %9, align 8
  br label %48

48:                                               ; preds = %42, %39, %25
  %49 = load ptr, ptr %9, align 8
  ret ptr %49
}