; Function Attrs: nounwind uwtable
define ptr @Abc_NtkDarTempor(ptr noundef %0, i32 noundef %1, i32 noundef %2, i32 noundef %3, i32 noundef %4, i32 noundef %5, i32 noundef %6, i32 noundef %7) local_unnamed_addr #1 {
  %9 = tail call ptr @Abc_NtkToDar(ptr noundef %0, i32 noundef 0, i32 noundef 1)
  %10 = icmp eq ptr %9, null
  br i1 %10, label %18, label %11

11:                                               ; preds = %8
  %12 = tail call ptr @Saig_ManTempor(ptr noundef nonnull %9, i32 noundef %1, i32 noundef %2, i32 noundef %3, i32 noundef %4, i32 noundef %5, i32 noundef %6, i32 noundef %7) #19
  tail call void @Aig_ManStop(ptr noundef nonnull %9) #19
  %13 = icmp eq ptr %12, null
  br i1 %13, label %14, label %16

14:                                               ; preds = %11
  %15 = tail call ptr @Abc_NtkDup(ptr noundef %0) #19
  br label %18

16:                                               ; preds = %11
  %17 = tail call ptr @Abc_NtkFromDarSeqSweep(ptr noundef %0, ptr noundef nonnull %12)
  tail call void @Aig_ManStop(ptr noundef nonnull %12) #19
  br label %18

18:                                               ; preds = %8, %16, %14
  %.0 = phi ptr [ %15, %14 ], [ %17, %16 ], [ null, %8 ]
  ret ptr %.0
}